; Function Attrs: mustprogress uwtable
define hidden void @_ZN5smtfd14plugin_context12global_checkERK10ref_vectorI4expr11ast_managerE(ptr noundef nonnull readonly align 8 captures(none) dereferenceable(72) %0, ptr noundef nonnull align 8 dereferenceable(16) %1) local_unnamed_addr #3 align 2 {
  %3 = getelementptr inbounds nuw i8, ptr %0, i64 56
  %4 = load ptr, ptr %3, align 8, !tbaa !3
  %5 = icmp eq ptr %4, null
  br i1 %5, label %._crit_edge, label %_ZN6vectorIPN5smtfd13theory_pluginELb0EjE3endEv.exit

_ZN6vectorIPN5smtfd13theory_pluginELb0EjE3endEv.exit: ; preds = %2
  %6 = getelementptr inbounds i8, ptr %4, i64 -4
  %7 = load i32, ptr %6, align 4, !tbaa !10
  %8 = zext i32 %7 to i64
  %9 = getelementptr inbounds nuw ptr, ptr %4, i64 %8
  %.not9 = icmp eq i32 %7, 0
  br i1 %.not9, label %._crit_edge, label %.lr.ph

._crit_edge:                                      ; preds = %.lr.ph, %2, %_ZN6vectorIPN5smtfd13theory_pluginELb0EjE3endEv.exit
  ret void

.lr.ph:                                           ; preds = %_ZN6vectorIPN5smtfd13theory_pluginELb0EjE3endEv.exit, %.lr.ph
  %.010 = phi ptr [ %14, %.lr.ph ], [ %4, %_ZN6vectorIPN5smtfd13theory_pluginELb0EjE3endEv.exit ]
  %10 = load ptr, ptr %.010, align 8, !tbaa !12
  %11 = load ptr, ptr %10, align 8, !tbaa !14
  %12 = getelementptr inbounds nuw i8, ptr %11, i64 16
  %13 = load ptr, ptr %12, align 8
  tail call void %13(ptr noundef nonnull align 8 dereferenceable(144) %10, ptr noundef nonnull align 8 dereferenceable(16) %1)
  %14 = getelementptr inbounds nuw i8, ptr %.010, i64 8
  %.not = icmp eq ptr %14, %9
  br i1 %.not, label %._crit_edge, label %.lr.ph
}